; ModuleID = '55/1107.c'
source_filename = "55/1107.c"
target datalayout = "e-m:e-p270:32:32-p271:32:32-p272:64:64-i64:64-f80:128-n8:16:32:64-S128"
target triple = "x86_64-pc-linux-gnu"

@.str = private unnamed_addr constant [7 x i8] c"%d%s%d\00", align 1
@.str.1 = private unnamed_addr constant [2 x i8] c"0\00", align 1
@.str.2 = private unnamed_addr constant [4 x i8] c"%s\0A\00", align 1

; Function Attrs: noinline nounwind uwtable
define dso_local i32 @main() #0 {
  %1 = alloca i32, align 4
  %2 = alloca i32, align 4
  %3 = alloca i32, align 4
  %4 = alloca i32, align 4
  %5 = alloca i32, align 4
  %6 = alloca i32, align 4
  %7 = alloca i32, align 4
  %8 = alloca [1000 x i32], align 16
  %9 = alloca [1000 x i8], align 16
  %10 = alloca [1000 x i8], align 16
  store i32 0, i32* %1, align 4
  %11 = getelementptr inbounds [1000 x i8], [1000 x i8]* %9, i64 0, i64 0
  %12 = call i32 (i8*, ...) @__isoc99_scanf(i8* getelementptr inbounds ([7 x i8], [7 x i8]* @.str, i64 0, i64 0), i32* %2, i8* %11, i32* %3)
  %13 = getelementptr inbounds [1000 x i8], [1000 x i8]* %9, i64 0, i64 0
  %14 = call i64 @strlen(i8* %13) #3
  %15 = trunc i64 %14 to i32
  store i32 %15, i32* %6, align 4
  store i32 0, i32* %7, align 4
  store i32 0, i32* %4, align 4
  br label %16

16:                                               ; preds = %94, %0
  %17 = load i32, i32* %4, align 4
  %18 = load i32, i32* %6, align 4
  %19 = icmp slt i32 %17, %18
  br i1 %19, label %20, label %97

20:                                               ; preds = %16
  %21 = load i32, i32* %4, align 4
  %22 = sext i32 %21 to i64
  %23 = getelementptr inbounds [1000 x i8], [1000 x i8]* %9, i64 0, i64 %22
  %24 = load i8, i8* %23, align 1
  %25 = sext i8 %24 to i32
  %26 = icmp sge i32 %25, 65
  br i1 %26, label %27, label %46

27:                                               ; preds = %20
  %28 = load i32, i32* %4, align 4
  %29 = sext i32 %28 to i64
  %30 = getelementptr inbounds [1000 x i8], [1000 x i8]* %9, i64 0, i64 %29
  %31 = load i8, i8* %30, align 1
  %32 = sext i8 %31 to i32
  %33 = icmp sle i32 %32, 90
  br i1 %33, label %34, label %46

34:                                               ; preds = %27
  %35 = load i32, i32* %4, align 4
  %36 = sext i32 %35 to i64
  %37 = getelementptr inbounds [1000 x i8], [1000 x i8]* %9, i64 0, i64 %36
  %38 = load i8, i8* %37, align 1
  %39 = sext i8 %38 to i32
  %40 = sub nsw i32 %39, 65
  %41 = add nsw i32 %40, 10
  %42 = trunc i32 %41 to i8
  %43 = load i32, i32* %4, align 4
  %44 = sext i32 %43 to i64
  %45 = getelementptr inbounds [1000 x i8], [1000 x i8]* %9, i64 0, i64 %44
  store i8 %42, i8* %45, align 1
  br label %84

46:                                               ; preds = %27, %20
  %47 = load i32, i32* %4, align 4
  %48 = sext i32 %47 to i64
  %49 = getelementptr inbounds [1000 x i8], [1000 x i8]* %9, i64 0, i64 %48
  %50 = load i8, i8* %49, align 1
  %51 = sext i8 %50 to i32
  %52 = icmp sge i32 %51, 97
  br i1 %52, label %53, label %72

53:                                               ; preds = %46
  %54 = load i32, i32* %4, align 4
  %55 = sext i32 %54 to i64
  %56 = getelementptr inbounds [1000 x i8], [1000 x i8]* %9, i64 0, i64 %55
  %57 = load i8, i8* %56, align 1
  %58 = sext i8 %57 to i32
  %59 = icmp sle i32 %58, 122
  br i1 %59, label %60, label %72

60:                                               ; preds = %53
  %61 = load i32, i32* %4, align 4
  %62 = sext i32 %61 to i64
  %63 = getelementptr inbounds [1000 x i8], [1000 x i8]* %9, i64 0, i64 %62
  %64 = load i8, i8* %63, align 1
  %65 = sext i8 %64 to i32
  %66 = sub nsw i32 %65, 97
  %67 = add nsw i32 %66, 10
  %68 = trunc i32 %67 to i8
  %69 = load i32, i32* %4, align 4
  %70 = sext i32 %69 to i64
  %71 = getelementptr inbounds [1000 x i8], [1000 x i8]* %9, i64 0, i64 %70
  store i8 %68, i8* %71, align 1
  br label %83

72:                                               ; preds = %53, %46
  %73 = load i32, i32* %4, align 4
  %74 = sext i32 %73 to i64
  %75 = getelementptr inbounds [1000 x i8], [1000 x i8]* %9, i64 0, i64 %74
  %76 = load i8, i8* %75, align 1
  %77 = sext i8 %76 to i32
  %78 = sub nsw i32 %77, 48
  %79 = trunc i32 %78 to i8
  %80 = load i32, i32* %4, align 4
  %81 = sext i32 %80 to i64
  %82 = getelementptr inbounds [1000 x i8], [1000 x i8]* %9, i64 0, i64 %81
  store i8 %79, i8* %82, align 1
  br label %83

83:                                               ; preds = %72, %60
  br label %84

84:                                               ; preds = %83, %34
  %85 = load i32, i32* %4, align 4
  %86 = sext i32 %85 to i64
  %87 = getelementptr inbounds [1000 x i8], [1000 x i8]* %9, i64 0, i64 %86
  %88 = load i8, i8* %87, align 1
  %89 = sext i8 %88 to i32
  %90 = load i32, i32* %7, align 4
  %91 = load i32, i32* %2, align 4
  %92 = mul nsw i32 %90, %91
  %93 = add nsw i32 %89, %92
  store i32 %93, i32* %7, align 4
  br label %94

94:                                               ; preds = %84
  %95 = load i32, i32* %4, align 4
  %96 = add nsw i32 %95, 1
  store i32 %96, i32* %4, align 4
  br label %16

97:                                               ; preds = %16
  %98 = load i32, i32* %7, align 4
  %99 = icmp eq i32 %98, 0
  br i1 %99, label %100, label %102

100:                                              ; preds = %97
  %101 = call i32 (i8*, ...) @printf(i8* getelementptr inbounds ([2 x i8], [2 x i8]* @.str.1, i64 0, i64 0))
  br label %102

102:                                              ; preds = %100, %97
  store i32 0, i32* %4, align 4
  br label %103

103:                                              ; preds = %116, %102
  %104 = load i32, i32* %7, align 4
  %105 = icmp ne i32 %104, 0
  br i1 %105, label %106, label %119

106:                                              ; preds = %103
  %107 = load i32, i32* %7, align 4
  %108 = load i32, i32* %3, align 4
  %109 = srem i32 %107, %108
  %110 = load i32, i32* %4, align 4
  %111 = sext i32 %110 to i64
  %112 = getelementptr inbounds [1000 x i32], [1000 x i32]* %8, i64 0, i64 %111
  store i32 %109, i32* %112, align 4
  %113 = load i32, i32* %7, align 4
  %114 = load i32, i32* %3, align 4
  %115 = sdiv i32 %113, %114
  store i32 %115, i32* %7, align 4
  br label %116

116:                                              ; preds = %106
  %117 = load i32, i32* %4, align 4
  %118 = add nsw i32 %117, 1
  store i32 %118, i32* %4, align 4
  br label %103

119:                                              ; preds = %103
  store i32 0, i32* %5, align 4
  br label %120

120:                                              ; preds = %158, %119
  %121 = load i32, i32* %5, align 4
  %122 = load i32, i32* %4, align 4
  %123 = icmp slt i32 %121, %122
  br i1 %123, label %124, label %161

124:                                              ; preds = %120
  %125 = load i32, i32* %5, align 4
  %126 = sext i32 %125 to i64
  %127 = getelementptr inbounds [1000 x i32], [1000 x i32]* %8, i64 0, i64 %126
  %128 = load i32, i32* %127, align 4
  %129 = icmp sle i32 %128, 9
  br i1 %129, label %130, label %143

130:                                              ; preds = %124
  %131 = load i32, i32* %5, align 4
  %132 = sext i32 %131 to i64
  %133 = getelementptr inbounds [1000 x i32], [1000 x i32]* %8, i64 0, i64 %132
  %134 = load i32, i32* %133, align 4
  %135 = add nsw i32 %134, 48
  %136 = trunc i32 %135 to i8
  %137 = load i32, i32* %4, align 4
  %138 = load i32, i32* %5, align 4
  %139 = sub nsw i32 %137, %138
  %140 = sub nsw i32 %139, 1
  %141 = sext i32 %140 to i64
  %142 = getelementptr inbounds [1000 x i8], [1000 x i8]* %10, i64 0, i64 %141
  store i8 %136, i8* %142, align 1
  br label %157

143:                                              ; preds = %124
  %144 = load i32, i32* %5, align 4
  %145 = sext i32 %144 to i64
  %146 = getelementptr inbounds [1000 x i32], [1000 x i32]* %8, i64 0, i64 %145
  %147 = load i32, i32* %146, align 4
  %148 = add nsw i32 %147, 65
  %149 = sub nsw i32 %148, 10
  %150 = trunc i32 %149 to i8
  %151 = load i32, i32* %4, align 4
  %152 = load i32, i32* %5, align 4
  %153 = sub nsw i32 %151, %152
  %154 = sub nsw i32 %153, 1
  %155 = sext i32 %154 to i64
  %156 = getelementptr inbounds [1000 x i8], [1000 x i8]* %10, i64 0, i64 %155
  store i8 %150, i8* %156, align 1
  br label %157

157:                                              ; preds = %143, %130
  br label %158

158:                                              ; preds = %157
  %159 = load i32, i32* %5, align 4
  %160 = add nsw i32 %159, 1
  store i32 %160, i32* %5, align 4
  br label %120

161:                                              ; preds = %120
  %162 = getelementptr inbounds [1000 x i8], [1000 x i8]* %10, i64 0, i64 0
  %163 = call i32 (i8*, ...) @printf(i8* getelementptr inbounds ([4 x i8], [4 x i8]* @.str.2, i64 0, i64 0), i8* %162)
  %164 = call i32 @getchar()
  %165 = call i32 @getchar()
  %166 = load i32, i32* %1, align 4
  ret i32 %166
}

declare dso_local i32 @__isoc99_scanf(i8*, ...) #1

; Function Attrs: nounwind readonly
declare dso_local i64 @strlen(i8*) #2

declare dso_local i32 @printf(i8*, ...) #1

declare dso_local i32 @getchar() #1


!llvm.module.flags = !{!0}
!llvm.ident = !{!1}

!0 = !{i32 1, !"wchar_size", i32 4}
!1 = !{!"clang version 10.0.0-4ubuntu1 "}
